; ModuleID = 'bench/box2d/original/b2_draw.cpp.ll'
source_filename = "bench/box2d/original/b2_draw.cpp.ll"
target datalayout = "e-m:e-p270:32:32-p271:32:32-p272:64:64-i64:64-i128:128-f80:128-n8:16:32:64-S128"
target triple = "x86_64-unknown-linux-gnu"

$_ZN6b2DrawD2Ev = comdat any

$_ZN6b2DrawD0Ev = comdat any

$_ZTV6b2Draw = comdat any

$_ZTS6b2Draw = comdat any

$_ZTI6b2Draw = comdat any

@_ZTV6b2Draw = linkonce_odr unnamed_addr constant { [11 x ptr] } { [11 x ptr] [ptr null, ptr @_ZTI6b2Draw, ptr @_ZN6b2DrawD2Ev, ptr @_ZN6b2DrawD0Ev, ptr @__cxa_pure_virtual, ptr @__cxa_pure_virtual, ptr @__cxa_pure_virtual, ptr @__cxa_pure_virtual, ptr @__cxa_pure_virtual, ptr @__cxa_pure_virtual, ptr @__cxa_pure_virtual] }, comdat, align 8
@_ZTVN10__cxxabiv117__class_type_infoE = external global [0 x ptr]
@_ZTS6b2Draw = linkonce_odr constant [8 x i8] c"6b2Draw\00", comdat, align 1
@_ZTI6b2Draw = linkonce_odr constant { ptr, ptr } { ptr getelementptr inbounds (ptr, ptr @_ZTVN10__cxxabiv117__class_type_infoE, i64 2), ptr @_ZTS6b2Draw }, comdat, align 8

; Function Attrs: mustprogress nofree norecurse nosync nounwind willreturn memory(argmem: write) uwtable
define void @_ZN6b2DrawC2Ev(ptr nocapture noundef nonnull writeonly align 8 dereferenceable(12) %this) unnamed_addr #0 align 2 {
entry:
  store ptr getelementptr inbounds ({ [11 x ptr] }, ptr @_ZTV6b2Draw, i64 0, i32 0, i64 2), ptr %this, align 8
  %m_drawFlags = getelementptr inbounds i8, ptr %this, i64 8
  store i32 0, ptr %m_drawFlags, align 8
  ret void
}

; Function Attrs: mustprogress nofree norecurse nosync nounwind willreturn memory(argmem: write) uwtable
define void @_ZN6b2Draw8SetFlagsEj(ptr nocapture noundef nonnull writeonly align 8 dereferenceable(12) %this, i32 noundef %flags) local_unnamed_addr #0 align 2 {
entry:
  %m_drawFlags = getelementptr inbounds i8, ptr %this, i64 8
  store i32 %flags, ptr %m_drawFlags, align 8
  ret void
}

; Function Attrs: mustprogress nofree norecurse nosync nounwind willreturn memory(argmem: read) uwtable
define noundef i32 @_ZNK6b2Draw8GetFlagsEv(ptr nocapture noundef nonnull readonly align 8 dereferenceable(12) %this) local_unnamed_addr #1 align 2 {
entry:
  %m_drawFlags = getelementptr inbounds i8, ptr %this, i64 8
  %0 = load i32, ptr %m_drawFlags, align 8
  ret i32 %0
}

; Function Attrs: mustprogress nofree norecurse nosync nounwind willreturn memory(argmem: readwrite) uwtable
define void @_ZN6b2Draw11AppendFlagsEj(ptr nocapture noundef nonnull align 8 dereferenceable(12) %this, i32 noundef %flags) local_unnamed_addr #2 align 2 {
entry:
  %m_drawFlags = getelementptr inbounds i8, ptr %this, i64 8
  %0 = load i32, ptr %m_drawFlags, align 8
  %or = or i32 %0, %flags
  store i32 %or, ptr %m_drawFlags, align 8
  ret void
}

; Function Attrs: mustprogress nofree norecurse nosync nounwind willreturn memory(argmem: readwrite) uwtable
define void @_ZN6b2Draw10ClearFlagsEj(ptr nocapture noundef nonnull align 8 dereferenceable(12) %this, i32 noundef %flags) local_unnamed_addr #2 align 2 {
entry:
  %not = xor i32 %flags, -1
  %m_drawFlags = getelementptr inbounds i8, ptr %this, i64 8
  %0 = load i32, ptr %m_drawFlags, align 8
  %and = and i32 %0, %not
  store i32 %and, ptr %m_drawFlags, align 8
  ret void
}

; Function Attrs: mustprogress nounwind uwtable
define linkonce_odr hidden void @_ZN6b2DrawD2Ev(ptr noundef nonnull align 8 dereferenceable(12) %this) unnamed_addr #3 comdat align 2 {
entry:
  ret void
}

; Function Attrs: mustprogress nounwind uwtable
define linkonce_odr hidden void @_ZN6b2DrawD0Ev(ptr noundef nonnull align 8 dereferenceable(12) %this) unnamed_addr #3 comdat align 2 {
entry:
  tail call void @llvm.trap() #5
  unreachable
}

declare void @__cxa_pure_virtual() unnamed_addr

; Function Attrs: cold noreturn nounwind memory(inaccessiblemem: write)
declare void @llvm.trap() #4


!llvm.module.flags = !{!0, !1, !2, !3}

!0 = !{i32 1, !"wchar_size", i32 4}
!1 = !{i32 8, !"PIC Level", i32 2}
!2 = !{i32 7, !"uwtable", i32 2}
!3 = !{i32 7, !"frame-pointer", i32 2}
